target datalayout = "e-m:e-p270:32:32-p271:32:32-p272:64:64-i64:64-i128:128-f80:128-n8:16:32:64-S128"
target triple = "x86_64-pc-linux-gnu"

%"class.llvm::SmallVectorBase" = type { ptr, i32, i32 }
%"struct.llvm::IRPosition" = type { %"class.llvm::PointerIntPair", ptr }
%"class.llvm::PointerIntPair" = type { %"struct.llvm::detail::PunnedPointer" }
%"struct.llvm::detail::PunnedPointer" = type { [8 x i8] }
%"struct.llvm::AADepGraphNode" = type { ptr, %"class.llvm::SmallSetVector" }
%"class.llvm::SmallSetVector" = type { %"class.llvm::SetVector" }
%"class.llvm::SetVector" = type { %"class.llvm::DenseSet", %"class.llvm::SmallVector.39" }
%"class.llvm::DenseSet" = type { %"class.llvm::detail::DenseSetImpl" }
%"class.llvm::detail::DenseSetImpl" = type { %"class.llvm::DenseMap.36" }
%"class.llvm::DenseMap.36" = type <{ ptr, i32, i32, i32, [4 x i8] }>
%"class.llvm::SmallVector.39" = type { %"class.llvm::SmallVectorImpl.40", %"struct.llvm::SmallVectorStorage.43" }
%"class.llvm::SmallVectorImpl.40" = type { %"class.llvm::SmallVectorTemplateBase.41" }
%"class.llvm::SmallVectorTemplateBase.41" = type { %"class.llvm::SmallVectorTemplateCommon.42" }
%"class.llvm::SmallVectorTemplateCommon.42" = type { %"class.llvm::SmallVectorBase" }
%"struct.llvm::SmallVectorStorage.43" = type { [16 x i8] }
%"struct.llvm::StateWrapper.base" = type <{ %"struct.llvm::AbstractAttribute", %"struct.llvm::BooleanState.base" }>
%"struct.llvm::AbstractAttribute" = type { %"struct.llvm::AADepGraphNode", %"struct.llvm::IRPosition" }
%"struct.llvm::BooleanState.base" = type { %"struct.llvm::IntegerStateBase.base" }
%"struct.llvm::IntegerStateBase.base" = type <{ %"struct.llvm::AbstractState", i8, i8 }>
%"struct.llvm::AbstractState" = type { ptr }
%"class.std::optional.838" = type { %"struct.std::_Optional_base.839" }
%"struct.std::_Optional_base.839" = type { %"struct.std::_Optional_payload.841" }
%"struct.std::_Optional_payload.841" = type { %"struct.std::_Optional_payload_base.base.843", [7 x i8] }
%"struct.std::_Optional_payload_base.base.843" = type <{ %"union.std::_Optional_payload_base<llvm::Value *>::_Storage", i8 }>
%"union.std::_Optional_payload_base<llvm::Value *>::_Storage" = type { ptr }
%"struct.(anonymous namespace)::AAICVTracker" = type { %"struct.llvm::StateWrapper.base", [1 x i32] }
%"class.llvm::EnumeratedArray.1119" = type { [5 x %"class.std::optional.838"] }
%"struct.(anonymous namespace)::AAICVTrackerCallSiteReturned" = type { %"struct.(anonymous namespace)::AAICVTracker", %"class.llvm::EnumeratedArray.1119" }

; Function Attrs: mustprogress nounwind uwtable
define linkonce_odr hidden noundef nonnull align 8 dereferenceable(16) ptr @_ZNK4llvm15EnumeratedArrayISt8optionalIPNS_5ValueEENS_3omp18InternalControlVarELS6_4EiLi5EEixES6_(ptr noundef nonnull align 8 dereferenceable(80) %0, i32 noundef %1) #1 comdat align 2 {
  %3 = alloca ptr, align 8
  %4 = alloca i32, align 4
  %5 = alloca i32, align 4
  store ptr %0, ptr %3, align 8
  store i32 %1, ptr %4, align 4
  %6 = load ptr, ptr %3, align 8
  %7 = load i32, ptr %4, align 4
  store i32 %7, ptr %5, align 4
  %8 = getelementptr inbounds nuw %"class.llvm::EnumeratedArray.1119", ptr %6, i32 0, i32 0
  %9 = load i32, ptr %5, align 4
  %10 = sext i32 %9 to i64
  %11 = getelementptr inbounds [5 x %"class.std::optional.838"], ptr %8, i64 0, i64 %10
  ret ptr %11
}

; Function Attrs: mustprogress nounwind uwtable
define internal { ptr, i8 } @_ZNK12_GLOBAL__N_128AAICVTrackerCallSiteReturned25getUniqueReplacementValueEN4llvm3omp18InternalControlVarE(ptr noundef nonnull align 8 dereferenceable(176) %0, i32 noundef %1) unnamed_addr #1 align 2 {
  %3 = alloca %"class.std::optional.838", align 8
  %4 = alloca ptr, align 8
  %5 = alloca i32, align 4
  store ptr %0, ptr %4, align 8
  store i32 %1, ptr %5, align 4
  %6 = load ptr, ptr %4, align 8
  %7 = getelementptr inbounds nuw %"struct.(anonymous namespace)::AAICVTrackerCallSiteReturned", ptr %6, i32 0, i32 1
  %8 = load i32, ptr %5, align 4
  %9 = call noundef nonnull align 8 dereferenceable(16) ptr @_ZNK4llvm15EnumeratedArrayISt8optionalIPNS_5ValueEENS_3omp18InternalControlVarELS6_4EiLi5EEixES6_(ptr noundef nonnull align 8 dereferenceable(80) %7, i32 noundef %8)
  call void @llvm.memcpy.p0.p0.i64(ptr align 8 %3, ptr align 8 %9, i64 16, i1 false)
  %10 = getelementptr inbounds nuw %"class.std::optional.838", ptr %3, i32 0, i32 0
  %11 = getelementptr inbounds nuw %"struct.std::_Optional_base.839", ptr %10, i32 0, i32 0
  %12 = load { ptr, i8 }, ptr %11, align 8
  ret { ptr, i8 } %12
}