; Function Attrs: mustprogress nofree norecurse nosync nounwind willreturn memory(argmem: read) uwtable
define internal { ptr, i8 } @_ZNK12_GLOBAL__N_128AAICVTrackerCallSiteReturned25getUniqueReplacementValueEN4llvm3omp18InternalControlVarE(ptr nocapture noundef nonnull readonly align 8 dereferenceable(176) %0, i32 noundef %1) unnamed_addr #16 align 2 {
  %3 = getelementptr inbounds nuw i8, ptr %0, i64 96
  %4 = sext i32 %1 to i64
  %5 = getelementptr inbounds [5 x %"class.std::optional.838"], ptr %3, i64 0, i64 %4
  %.sroa.0.0.copyload = load ptr, ptr %5, align 8
  %.sroa.2.0..sroa_idx = getelementptr inbounds i8, ptr %5, i64 8
  %.sroa.2.0.copyload = load i8, ptr %.sroa.2.0..sroa_idx, align 8
  %.fca.0.insert = insertvalue { ptr, i8 } poison, ptr %.sroa.0.0.copyload, 0
  %.fca.1.insert = insertvalue { ptr, i8 } %.fca.0.insert, i8 %.sroa.2.0.copyload, 1
  ret { ptr, i8 } %.fca.1.insert
}